target datalayout = "e-m:e-p270:32:32-p271:32:32-p272:64:64-i64:64-i128:128-f80:128-n8:16:32:64-S128"
target triple = "x86_64-pc-linux-gnu"

@SDL_hidapi_only_controllers = internal global i8 0, align 1
@SDL_hidapi_ignored_devices = internal global ptr null, align 8
@.str.17 = private unnamed_addr constant [14 x i8] c"0x%.4x/0x0000\00", align 1
@.str.18 = private unnamed_addr constant [14 x i8] c"0x%.4x/0x%.4x\00", align 1

; Function Attrs: nounwind uwtable
define hidden zeroext i1 @SDL_HIDAPI_ShouldIgnoreDevice(i32 noundef %0, i16 noundef zeroext %1, i16 noundef zeroext %2, i16 noundef zeroext %3, i16 noundef zeroext %4) #0 {
  %6 = alloca i1, align 1
  %7 = alloca i32, align 4
  %8 = alloca i16, align 2
  %9 = alloca i16, align 2
  %10 = alloca i16, align 2
  %11 = alloca i16, align 2
  %12 = alloca [16 x i8], align 16
  %13 = alloca [16 x i8], align 16
  %14 = alloca i32, align 4
  store i32 %0, ptr %7, align 4
  store i16 %1, ptr %8, align 2
  store i16 %2, ptr %9, align 2
  store i16 %3, ptr %10, align 2
  store i16 %4, ptr %11, align 2
  %15 = load i8, ptr @SDL_hidapi_only_controllers, align 1, !range !12, !noundef !13
  %16 = trunc i8 %15 to i1
  br i1 %16, label %17, label %62

17:                                               ; preds = %5
  %18 = load i16, ptr %10, align 2
  %19 = zext i16 %18 to i32
  %20 = icmp ne i32 %19, 0
  br i1 %20, label %21, label %62

21:                                               ; preds = %17
  %22 = load i16, ptr %8, align 2
  %23 = zext i16 %22 to i32
  %24 = icmp eq i32 %23, 10462
  br i1 %24, label %25, label %42

25:                                               ; preds = %21
  %26 = load i32, ptr %7, align 4
  %27 = icmp eq i32 %26, 1
  br i1 %27, label %28, label %41

28:                                               ; preds = %25
  %29 = load i16, ptr %10, align 2
  %30 = zext i16 %29 to i32
  %31 = icmp eq i32 %30, 1
  br i1 %31, label %32, label %41

32:                                               ; preds = %28
  %33 = load i16, ptr %11, align 2
  %34 = zext i16 %33 to i32
  %35 = icmp eq i32 %34, 6
  br i1 %35, label %40, label %36

36:                                               ; preds = %32
  %37 = load i16, ptr %11, align 2
  %38 = zext i16 %37 to i32
  %39 = icmp eq i32 %38, 2
  br i1 %39, label %40, label %41

40:                                               ; preds = %36, %32
  store i1 true, ptr %6, align 1
  br label %91

41:                                               ; preds = %36, %28, %25
  br label %61

42:                                               ; preds = %21
  %43 = load i16, ptr %10, align 2
  %44 = zext i16 %43 to i32
  %45 = icmp eq i32 %44, 1
  br i1 %45, label %46, label %59

46:                                               ; preds = %42
  %47 = load i16, ptr %11, align 2
  %48 = zext i16 %47 to i32
  %49 = icmp eq i32 %48, 4
  br i1 %49, label %58, label %50

50:                                               ; preds = %46
  %51 = load i16, ptr %11, align 2
  %52 = zext i16 %51 to i32
  %53 = icmp eq i32 %52, 5
  br i1 %53, label %58, label %54

54:                                               ; preds = %50
  %55 = load i16, ptr %11, align 2
  %56 = zext i16 %55 to i32
  %57 = icmp eq i32 %56, 8
  br i1 %57, label %58, label %59

58:                                               ; preds = %54, %50, %46
  br label %60

59:                                               ; preds = %54, %42
  store i1 true, ptr %6, align 1
  br label %91

60:                                               ; preds = %58
  br label %61

61:                                               ; preds = %60, %41
  br label %62

62:                                               ; preds = %61, %17, %5
  %63 = load ptr, ptr @SDL_hidapi_ignored_devices, align 8
  %64 = icmp ne ptr %63, null
  br i1 %64, label %65, label %90

65:                                               ; preds = %62
  call void @llvm.lifetime.start.p0(i64 16, ptr %12) #10
  call void @llvm.lifetime.start.p0(i64 16, ptr %13) #10
  %66 = getelementptr inbounds [16 x i8], ptr %12, i64 0, i64 0
  %67 = load i16, ptr %8, align 2
  %68 = zext i16 %67 to i32
  %69 = call i32 (ptr, i64, ptr, ...) @SDL_snprintf_REAL(ptr noundef %66, i64 noundef 16, ptr noundef @.str.17, i32 noundef %68)
  %70 = getelementptr inbounds [16 x i8], ptr %13, i64 0, i64 0
  %71 = load i16, ptr %8, align 2
  %72 = zext i16 %71 to i32
  %73 = load i16, ptr %9, align 2
  %74 = zext i16 %73 to i32
  %75 = call i32 (ptr, i64, ptr, ...) @SDL_snprintf_REAL(ptr noundef %70, i64 noundef 16, ptr noundef @.str.18, i32 noundef %72, i32 noundef %74)
  %76 = load ptr, ptr @SDL_hidapi_ignored_devices, align 8
  %77 = getelementptr inbounds [16 x i8], ptr %12, i64 0, i64 0
  %78 = call ptr @SDL_strcasestr_REAL(ptr noundef %76, ptr noundef %77)
  %79 = icmp ne ptr %78, null
  br i1 %79, label %85, label %80

80:                                               ; preds = %65
  %81 = load ptr, ptr @SDL_hidapi_ignored_devices, align 8
  %82 = getelementptr inbounds [16 x i8], ptr %13, i64 0, i64 0
  %83 = call ptr @SDL_strcasestr_REAL(ptr noundef %81, ptr noundef %82)
  %84 = icmp ne ptr %83, null
  br i1 %84, label %85, label %86

85:                                               ; preds = %80, %65
  store i1 true, ptr %6, align 1
  store i32 1, ptr %14, align 4
  br label %87

86:                                               ; preds = %80
  store i32 0, ptr %14, align 4
  br label %87

87:                                               ; preds = %86, %85
  call void @llvm.lifetime.end.p0(i64 16, ptr %13) #10
  call void @llvm.lifetime.end.p0(i64 16, ptr %12) #10
  %88 = load i32, ptr %14, align 4
  switch i32 %88, label %93 [
    i32 0, label %89
    i32 1, label %91
  ]

89:                                               ; preds = %87
  br label %90

90:                                               ; preds = %89, %62
  store i1 false, ptr %6, align 1
  br label %91

91:                                               ; preds = %90, %87, %59, %40
  %92 = load i1, ptr %6, align 1
  ret i1 %92

93:                                               ; preds = %87
  unreachable
}