; Function Attrs: nounwind uwtable
define hidden zeroext i1 @SDL_HIDAPI_ShouldIgnoreDevice(i32 noundef %0, i16 noundef zeroext %1, i16 noundef zeroext %2, i16 noundef zeroext %3, i16 noundef zeroext %4) local_unnamed_addr #1 {
  %6 = alloca [16 x i8], align 16
  %7 = alloca [16 x i8], align 16
  %8 = load i8, ptr @SDL_hidapi_only_controllers, align 1, !range !13, !noundef !14
  %9 = trunc nuw i8 %8 to i1
  %10 = icmp ne i16 %3, 0
  %or.cond = and i1 %10, %9
  br i1 %or.cond, label %11, label %20

11:                                               ; preds = %5
  %12 = icmp eq i16 %1, 10462
  br i1 %12, label %13, label %17

13:                                               ; preds = %11
  %14 = icmp eq i32 %0, 1
  %15 = icmp eq i16 %3, 1
  %or.cond5 = and i1 %14, %15
  %16 = and i16 %4, -5
  %or.cond8 = icmp eq i16 %16, 2
  %or.cond32 = and i1 %or.cond5, %or.cond8
  br i1 %or.cond32, label %32, label %20

17:                                               ; preds = %11
  %18 = icmp eq i16 %3, 1
  br i1 %18, label %19, label %32

19:                                               ; preds = %17
  switch i16 %4, label %32 [
    i16 8, label %20
    i16 5, label %20
    i16 4, label %20
  ]

20:                                               ; preds = %19, %19, %19, %13, %5
  %21 = load ptr, ptr @SDL_hidapi_ignored_devices, align 8
  %.not = icmp eq ptr %21, null
  br i1 %.not, label %32, label %22

22:                                               ; preds = %20
  call void @llvm.lifetime.start.p0(i64 16, ptr nonnull %6) #22
  call void @llvm.lifetime.start.p0(i64 16, ptr nonnull %7) #22
  %23 = zext i16 %1 to i32
  %24 = call i32 (ptr, i64, ptr, ...) @SDL_snprintf_REAL(ptr noundef nonnull %6, i64 noundef 16, ptr noundef nonnull @.str.17, i32 noundef %23) #22
  %25 = zext i16 %2 to i32
  %26 = call i32 (ptr, i64, ptr, ...) @SDL_snprintf_REAL(ptr noundef nonnull %7, i64 noundef 16, ptr noundef nonnull @.str.18, i32 noundef %23, i32 noundef %25) #22
  %27 = load ptr, ptr @SDL_hidapi_ignored_devices, align 8
  %28 = call ptr @SDL_strcasestr_REAL(ptr noundef %27, ptr noundef nonnull %6) #22
  %.not30 = icmp eq ptr %28, null
  br i1 %.not30, label %29, label %.sink.split

29:                                               ; preds = %22
  %30 = load ptr, ptr @SDL_hidapi_ignored_devices, align 8
  %31 = call ptr @SDL_strcasestr_REAL(ptr noundef %30, ptr noundef nonnull %7) #22
  %.not31 = icmp ne ptr %31, null
  br label %.sink.split

.sink.split:                                      ; preds = %29, %22
  %.028.ph = phi i1 [ true, %22 ], [ %.not31, %29 ]
  call void @llvm.lifetime.end.p0(i64 16, ptr nonnull %7) #22
  call void @llvm.lifetime.end.p0(i64 16, ptr nonnull %6) #22
  br label %32

32:                                               ; preds = %.sink.split, %20, %17, %19, %13
  %.028 = phi i1 [ true, %13 ], [ true, %19 ], [ true, %17 ], [ false, %20 ], [ %.028.ph, %.sink.split ]
  ret i1 %.028
}